target datalayout = "e-m:e-p270:32:32-p271:32:32-p272:64:64-i64:64-i128:128-f80:128-n8:16:32:64-S128"
target triple = "x86_64-pc-linux-gnu"

%class.fpa2bv_converter = type { ptr, ptr, %class.bool_rewriter, %class.bv_util, %class.arith_util, %"class.datatype::util", %class.seq_util, %class.fpa_util, ptr, ptr, ptr, i8, [7 x i8], %class.obj_map, %class.obj_map, %class.obj_map.2, %class.obj_map.7, %class.ref_vector }
%class.bool_rewriter = type { ptr, i8, i8, i8, i8, i8, i8, i32, i8, i32, i32, i8, %class.ptr_vector, %class.ptr_vector, %class.svector, %class.svector }
%class.ptr_vector = type { %class.vector }
%class.vector = type { ptr }
%class.svector = type { %class.vector.0 }
%class.vector.0 = type { ptr }
%class.bv_util = type { %class.bv_recognizers, ptr, ptr }
%class.bv_recognizers = type { i32 }
%class.arith_util = type { ptr, ptr }
%"class.datatype::util" = type { ptr, i32, ptr }
%class.seq_util = type { ptr, ptr, ptr, i32, [4 x i8], %"class.seq_util::str", %"class.seq_util::rex" }
%"class.seq_util::str" = type <{ ptr, ptr, i32, [4 x i8] }>
%"class.seq_util::rex" = type { ptr, ptr, i32, %class.vector.1, %class.ref_vector, %"struct.seq_util::rex::info", %"struct.seq_util::rex::info" }
%class.vector.1 = type { ptr }
%"struct.seq_util::rex::info" = type { i32, i8, i32, i32 }
%class.fpa_util = type { ptr, ptr, i32, %class.arith_util, %class.bv_util }
%class.obj_map = type { %class.core_hashtable }
%class.core_hashtable = type <{ ptr, i32, i32, i32, [4 x i8] }>
%class.obj_map.2 = type { %class.core_hashtable.3 }
%class.core_hashtable.3 = type <{ ptr, i32, i32, i32, [4 x i8] }>
%class.obj_map.7 = type { %class.core_hashtable.8 }
%class.core_hashtable.8 = type <{ ptr, i32, i32, i32, [4 x i8] }>
%class.ref_vector = type { %class.ref_vector_core }
%class.ref_vector_core = type { %class.ref_manager_wrapper, %class.ptr_vector }
%class.ref_manager_wrapper = type { ptr }
%class.obj_ref = type { ptr, ptr }
%class.ast = type { i32, i32, i32, i32 }

; Function Attrs: mustprogress nounwind uwtable
define linkonce_odr hidden noundef i32 @_ZNK3ast13get_ref_countEv(ptr noundef nonnull align 4 dereferenceable(16) %0) #7 comdat align 2 {
  %2 = alloca ptr, align 8
  store ptr %0, ptr %2, align 8, !tbaa !134
  %3 = load ptr, ptr %2, align 8
  %4 = getelementptr inbounds nuw %class.ast, ptr %3, i32 0, i32 2
  %5 = load i32, ptr %4, align 4, !tbaa !486
  ret i32 %5
}

; Function Attrs: mustprogress nounwind uwtable
define linkonce_odr hidden void @_ZN3ast7dec_refEv(ptr noundef nonnull align 4 dereferenceable(16) %0) #7 comdat align 2 {
  %2 = alloca ptr, align 8
  store ptr %0, ptr %2, align 8, !tbaa !134
  %3 = load ptr, ptr %2, align 8
  %4 = getelementptr inbounds nuw %class.ast, ptr %3, i32 0, i32 2
  %5 = load i32, ptr %4, align 4, !tbaa !486
  %6 = add i32 %5, -1
  store i32 %6, ptr %4, align 4, !tbaa !486
  ret void
}

; Function Attrs: mustprogress uwtable
define linkonce_odr hidden void @_ZN11ast_manager7dec_refEP3ast(ptr noundef nonnull align 8 dereferenceable(976) %0, ptr noundef %1) #4 comdat align 2 {
  %3 = alloca ptr, align 8
  %4 = alloca ptr, align 8
  store ptr %0, ptr %3, align 8, !tbaa !8
  store ptr %1, ptr %4, align 8, !tbaa !134
  %5 = load ptr, ptr %3, align 8
  %6 = load ptr, ptr %4, align 8, !tbaa !134
  %7 = icmp ne ptr %6, null
  br i1 %7, label %8, label %16

8:                                                ; preds = %2
  %9 = load ptr, ptr %4, align 8, !tbaa !134
  call void @_ZN3ast7dec_refEv(ptr noundef nonnull align 4 dereferenceable(16) %9)
  %10 = load ptr, ptr %4, align 8, !tbaa !134
  %11 = call noundef i32 @_ZNK3ast13get_ref_countEv(ptr noundef nonnull align 4 dereferenceable(16) %10)
  %12 = icmp eq i32 %11, 0
  br i1 %12, label %13, label %15

13:                                               ; preds = %8
  %14 = load ptr, ptr %4, align 8, !tbaa !134
  call void @_ZN11ast_manager11delete_nodeEP3ast(ptr noundef nonnull align 8 dereferenceable(976) %5, ptr noundef %14)
  br label %15

15:                                               ; preds = %13, %8
  br label %16

16:                                               ; preds = %15, %2
  ret void
}

; Function Attrs: mustprogress nounwind uwtable
define linkonce_odr hidden void @_ZN3ast7inc_refEv(ptr noundef nonnull align 4 dereferenceable(16) %0) #7 comdat align 2 {
  %2 = alloca ptr, align 8
  store ptr %0, ptr %2, align 8, !tbaa !134
  %3 = load ptr, ptr %2, align 8
  %4 = getelementptr inbounds nuw %class.ast, ptr %3, i32 0, i32 2
  %5 = load i32, ptr %4, align 4, !tbaa !486
  %6 = add i32 %5, 1
  store i32 %6, ptr %4, align 4, !tbaa !486
  ret void
}

; Function Attrs: mustprogress uwtable
define linkonce_odr hidden void @_ZN7obj_refI4expr11ast_managerE7dec_refEv(ptr noundef nonnull align 8 dereferenceable(16) %0) #4 comdat align 2 {
  %2 = alloca ptr, align 8
  store ptr %0, ptr %2, align 8, !tbaa !130
  %3 = load ptr, ptr %2, align 8
  %4 = getelementptr inbounds nuw %class.obj_ref, ptr %3, i32 0, i32 0
  %5 = load ptr, ptr %4, align 8, !tbaa !132
  %6 = icmp ne ptr %5, null
  br i1 %6, label %7, label %12

7:                                                ; preds = %1
  %8 = getelementptr inbounds nuw %class.obj_ref, ptr %3, i32 0, i32 1
  %9 = load ptr, ptr %8, align 8, !tbaa !140
  %10 = getelementptr inbounds nuw %class.obj_ref, ptr %3, i32 0, i32 0
  %11 = load ptr, ptr %10, align 8, !tbaa !132
  call void @_ZN11ast_manager7dec_refEP3ast(ptr noundef nonnull align 8 dereferenceable(976) %9, ptr noundef %11)
  br label %12

12:                                               ; preds = %7, %1
  ret void
}

; Function Attrs: mustprogress uwtable
define linkonce_odr hidden void @_ZN11ast_manager7inc_refEP3ast(ptr noundef nonnull align 8 dereferenceable(976) %0, ptr noundef %1) #4 comdat align 2 {
  %3 = alloca ptr, align 8
  %4 = alloca ptr, align 8
  store ptr %0, ptr %3, align 8, !tbaa !8
  store ptr %1, ptr %4, align 8, !tbaa !134
  %5 = load ptr, ptr %4, align 8, !tbaa !134
  %6 = icmp ne ptr %5, null
  br i1 %6, label %7, label %9

7:                                                ; preds = %2
  %8 = load ptr, ptr %4, align 8, !tbaa !134
  call void @_ZN3ast7inc_refEv(ptr noundef nonnull align 4 dereferenceable(16) %8)
  br label %9

9:                                                ; preds = %7, %2
  ret void
}

; Function Attrs: mustprogress nounwind uwtable
define linkonce_odr hidden noundef nonnull align 8 dereferenceable(976) ptr @_ZNK8fpa_util1mEv(ptr noundef nonnull align 8 dereferenceable(64) %0) #7 comdat align 2 {
  %2 = alloca ptr, align 8
  store ptr %0, ptr %2, align 8, !tbaa !80
  %3 = load ptr, ptr %2, align 8
  %4 = getelementptr inbounds nuw %class.fpa_util, ptr %3, i32 0, i32 0
  %5 = load ptr, ptr %4, align 8, !tbaa !458
  ret ptr %5
}

; Function Attrs: mustprogress uwtable
define linkonce_odr hidden noundef nonnull align 8 dereferenceable(16) ptr @_ZN7obj_refI4expr11ast_managerEaSEPS0_(ptr noundef nonnull align 8 dereferenceable(16) %0, ptr noundef %1) #4 comdat align 2 {
  %3 = alloca ptr, align 8
  %4 = alloca ptr, align 8
  store ptr %0, ptr %3, align 8, !tbaa !130
  store ptr %1, ptr %4, align 8, !tbaa !128
  %5 = load ptr, ptr %3, align 8
  %6 = load ptr, ptr %4, align 8, !tbaa !128
  %7 = icmp ne ptr %6, null
  br i1 %7, label %8, label %12

8:                                                ; preds = %2
  %9 = getelementptr inbounds nuw %class.obj_ref, ptr %5, i32 0, i32 1
  %10 = load ptr, ptr %9, align 8, !tbaa !140
  %11 = load ptr, ptr %4, align 8, !tbaa !128
  call void @_ZN11ast_manager7inc_refEP3ast(ptr noundef nonnull align 8 dereferenceable(976) %10, ptr noundef %11)
  br label %12

12:                                               ; preds = %8, %2
  call void @_ZN7obj_refI4expr11ast_managerE7dec_refEv(ptr noundef nonnull align 8 dereferenceable(16) %5)
  %13 = load ptr, ptr %4, align 8, !tbaa !128
  %14 = getelementptr inbounds nuw %class.obj_ref, ptr %5, i32 0, i32 0
  store ptr %13, ptr %14, align 8, !tbaa !132
  ret ptr %5
}

; Function Attrs: mustprogress uwtable
define linkonce_odr hidden noundef ptr @_ZN8fpa_util5mk_fpEP4exprS1_S1_(ptr noundef nonnull align 8 dereferenceable(64) %0, ptr noundef %1, ptr noundef %2, ptr noundef %3) #4 comdat align 2 {
  %5 = alloca ptr, align 8
  %6 = alloca ptr, align 8
  %7 = alloca ptr, align 8
  %8 = alloca ptr, align 8
  store ptr %0, ptr %5, align 8, !tbaa !80
  store ptr %1, ptr %6, align 8, !tbaa !128
  store ptr %2, ptr %7, align 8, !tbaa !128
  store ptr %3, ptr %8, align 8, !tbaa !128
  %9 = load ptr, ptr %5, align 8
  %10 = call noundef nonnull align 8 dereferenceable(976) ptr @_ZNK8fpa_util1mEv(ptr noundef nonnull align 8 dereferenceable(64) %9)
  %11 = getelementptr inbounds nuw %class.fpa_util, ptr %9, i32 0, i32 2
  %12 = load i32, ptr %11, align 8, !tbaa !139
  %13 = load ptr, ptr %6, align 8, !tbaa !128
  %14 = load ptr, ptr %7, align 8, !tbaa !128
  %15 = load ptr, ptr %8, align 8, !tbaa !128
  %16 = call noundef ptr @_ZN11ast_manager6mk_appEiiP4exprS1_S1_(ptr noundef nonnull align 8 dereferenceable(976) %10, i32 noundef %12, i32 noundef 37, ptr noundef %13, ptr noundef %14, ptr noundef %15)
  ret ptr %16
}

; Function Attrs: mustprogress nounwind uwtable
define linkonce_odr hidden noundef ptr @_ZNK7obj_refI4expr11ast_managerEcvPS0_Ev(ptr noundef nonnull align 8 dereferenceable(16) %0) #7 comdat align 2 {
  %2 = alloca ptr, align 8
  store ptr %0, ptr %2, align 8, !tbaa !130
  %3 = load ptr, ptr %2, align 8
  %4 = getelementptr inbounds nuw %class.obj_ref, ptr %3, i32 0, i32 0
  %5 = load ptr, ptr %4, align 8, !tbaa !132
  ret ptr %5
}

; Function Attrs: mustprogress uwtable
define hidden void @_ZN16fpa2bv_converter10mk_bot_expEjR7obj_refI4expr11ast_managerE(ptr noundef nonnull align 8 dereferenceable(496) %0, i32 noundef %1, ptr noundef nonnull align 8 dereferenceable(16) %2) #4 align 2 {
  %4 = alloca ptr, align 8
  %5 = alloca i32, align 4
  %6 = alloca ptr, align 8
  store ptr %0, ptr %4, align 8, !tbaa !3
  store i32 %1, ptr %5, align 4, !tbaa !137
  store ptr %2, ptr %6, align 8, !tbaa !130
  %7 = load ptr, ptr %4, align 8
  %8 = getelementptr inbounds nuw %class.fpa2bv_converter, ptr %7, i32 0, i32 3
  %9 = load i32, ptr %5, align 4, !tbaa !137
  %10 = call noundef ptr @_ZNK7bv_util10mk_numeralEmj(ptr noundef nonnull align 8 dereferenceable(24) %8, i64 noundef 0, i32 noundef %9)
  %11 = load ptr, ptr %6, align 8, !tbaa !130
  %12 = call noundef nonnull align 8 dereferenceable(16) ptr @_ZN7obj_refI4expr11ast_managerEaSEPS0_(ptr noundef nonnull align 8 dereferenceable(16) %11, ptr noundef %10)
  ret void
}

; Function Attrs: mustprogress nounwind uwtable
define linkonce_odr hidden void @_ZN7obj_refI4expr11ast_managerEC2ERS1_(ptr noundef nonnull align 8 dereferenceable(16) %0, ptr noundef nonnull align 8 dereferenceable(976) %1) unnamed_addr #7 comdat align 2 {
  %3 = alloca ptr, align 8
  %4 = alloca ptr, align 8
  store ptr %0, ptr %3, align 8, !tbaa !130
  store ptr %1, ptr %4, align 8, !tbaa !8
  %5 = load ptr, ptr %3, align 8
  %6 = getelementptr inbounds nuw %class.obj_ref, ptr %5, i32 0, i32 0
  store ptr null, ptr %6, align 8, !tbaa !132
  %7 = getelementptr inbounds nuw %class.obj_ref, ptr %5, i32 0, i32 1
  %8 = load ptr, ptr %4, align 8, !tbaa !8
  store ptr %8, ptr %7, align 8, !tbaa !8
  ret void
}

; Function Attrs: mustprogress uwtable
define hidden void @_ZN16fpa2bv_converter8mk_nzeroEP4sortR7obj_refI4expr11ast_managerE(ptr noundef nonnull align 8 dereferenceable(496) %0, ptr noundef %1, ptr noundef nonnull align 8 dereferenceable(16) %2) #4 align 2 personality ptr @__gxx_personality_v0 {
  %4 = alloca ptr, align 8
  %5 = alloca ptr, align 8
  %6 = alloca ptr, align 8
  %7 = alloca i32, align 4
  %8 = alloca i32, align 4
  %9 = alloca %class.obj_ref, align 8
  %10 = alloca ptr, align 8
  %11 = alloca i32, align 4
  store ptr %0, ptr %4, align 8, !tbaa !3
  store ptr %1, ptr %5, align 8, !tbaa !206
  store ptr %2, ptr %6, align 8, !tbaa !130
  %12 = load ptr, ptr %4, align 8
  call void @llvm.lifetime.start.p0(i64 4, ptr %7) #3
  %13 = getelementptr inbounds nuw %class.fpa2bv_converter, ptr %12, i32 0, i32 7
  %14 = load ptr, ptr %5, align 8, !tbaa !206
  %15 = call noundef i32 @_ZNK8fpa_util9get_sbitsEP4sort(ptr noundef nonnull align 8 dereferenceable(64) %13, ptr noundef %14)
  store i32 %15, ptr %7, align 4, !tbaa !137
  call void @llvm.lifetime.start.p0(i64 4, ptr %8) #3
  %16 = getelementptr inbounds nuw %class.fpa2bv_converter, ptr %12, i32 0, i32 7
  %17 = load ptr, ptr %5, align 8, !tbaa !206
  %18 = call noundef i32 @_ZNK8fpa_util9get_ebitsEP4sort(ptr noundef nonnull align 8 dereferenceable(64) %16, ptr noundef %17)
  store i32 %18, ptr %8, align 4, !tbaa !137
  call void @llvm.lifetime.start.p0(i64 16, ptr %9) #3
  %19 = getelementptr inbounds nuw %class.fpa2bv_converter, ptr %12, i32 0, i32 1
  %20 = load ptr, ptr %19, align 8, !tbaa !113
  call void @_ZN7obj_refI4expr11ast_managerEC2ERS1_(ptr noundef nonnull align 8 dereferenceable(16) %9, ptr noundef nonnull align 8 dereferenceable(976) %20)
  %21 = load i32, ptr %8, align 4, !tbaa !137
  invoke void @_ZN16fpa2bv_converter10mk_bot_expEjR7obj_refI4expr11ast_managerE(ptr noundef nonnull align 8 dereferenceable(496) %12, i32 noundef %21, ptr noundef nonnull align 8 dereferenceable(16) %9)
          to label %22 unwind label %39

22:                                               ; preds = %3
  %23 = getelementptr inbounds nuw %class.fpa2bv_converter, ptr %12, i32 0, i32 7
  %24 = getelementptr inbounds nuw %class.fpa2bv_converter, ptr %12, i32 0, i32 3
  %25 = invoke noundef ptr @_ZNK7bv_util10mk_numeralEmj(ptr noundef nonnull align 8 dereferenceable(24) %24, i64 noundef 1, i32 noundef 1)
          to label %26 unwind label %39

26:                                               ; preds = %22
  %27 = invoke noundef ptr @_ZNK7obj_refI4expr11ast_managerEcvPS0_Ev(ptr noundef nonnull align 8 dereferenceable(16) %9)
          to label %28 unwind label %39

28:                                               ; preds = %26
  %29 = getelementptr inbounds nuw %class.fpa2bv_converter, ptr %12, i32 0, i32 3
  %30 = load i32, ptr %7, align 4, !tbaa !137
  %31 = sub i32 %30, 1
  %32 = invoke noundef ptr @_ZNK7bv_util10mk_numeralEmj(ptr noundef nonnull align 8 dereferenceable(24) %29, i64 noundef 0, i32 noundef %31)
          to label %33 unwind label %39

33:                                               ; preds = %28
  %34 = invoke noundef ptr @_ZN8fpa_util5mk_fpEP4exprS1_S1_(ptr noundef nonnull align 8 dereferenceable(64) %23, ptr noundef %25, ptr noundef %27, ptr noundef %32)
          to label %35 unwind label %39

35:                                               ; preds = %33
  %36 = load ptr, ptr %6, align 8, !tbaa !130
  %37 = invoke noundef nonnull align 8 dereferenceable(16) ptr @_ZN7obj_refI4expr11ast_managerEaSEPS0_(ptr noundef nonnull align 8 dereferenceable(16) %36, ptr noundef %34)
          to label %38 unwind label %39

38:                                               ; preds = %35
  call void @_ZN7obj_refI4expr11ast_managerED2Ev(ptr noundef nonnull align 8 dereferenceable(16) %9) #3
  call void @llvm.lifetime.end.p0(i64 16, ptr %9) #3
  call void @llvm.lifetime.end.p0(i64 4, ptr %8) #3
  call void @llvm.lifetime.end.p0(i64 4, ptr %7) #3
  ret void

39:                                               ; preds = %35, %33, %28, %26, %22, %3
  %40 = landingpad { ptr, i32 }
          cleanup
  %41 = extractvalue { ptr, i32 } %40, 0
  store ptr %41, ptr %10, align 8
  %42 = extractvalue { ptr, i32 } %40, 1
  store i32 %42, ptr %11, align 4
  call void @_ZN7obj_refI4expr11ast_managerED2Ev(ptr noundef nonnull align 8 dereferenceable(16) %9) #3
  call void @llvm.lifetime.end.p0(i64 16, ptr %9) #3
  call void @llvm.lifetime.end.p0(i64 4, ptr %8) #3
  call void @llvm.lifetime.end.p0(i64 4, ptr %7) #3
  br label %43

43:                                               ; preds = %39
  %44 = load ptr, ptr %10, align 8
  %45 = load i32, ptr %11, align 4
  %46 = insertvalue { ptr, i32 } poison, ptr %44, 0
  %47 = insertvalue { ptr, i32 } %46, i32 %45, 1
  resume { ptr, i32 } %47
}