; Function Attrs: mustprogress uwtable
define hidden void @_ZN16fpa2bv_converter8mk_nzeroEP4sortR7obj_refI4expr11ast_managerE(ptr noundef nonnull align 8 dereferenceable(496) %0, ptr noundef %1, ptr noundef nonnull align 8 captures(none) dereferenceable(16) %2) local_unnamed_addr #3 align 2 personality ptr @__gxx_personality_v0 {
  %4 = alloca %class.obj_ref, align 8
  %5 = getelementptr inbounds nuw i8, ptr %0, i64 288
  %6 = tail call noundef i32 @_ZNK8fpa_util9get_sbitsEP4sort(ptr noundef nonnull align 8 dereferenceable(64) %5, ptr noundef %1)
  %7 = tail call noundef i32 @_ZNK8fpa_util9get_ebitsEP4sort(ptr noundef nonnull align 8 dereferenceable(64) %5, ptr noundef %1)
  call void @llvm.lifetime.start.p0(i64 16, ptr nonnull %4) #23
  %8 = getelementptr inbounds nuw i8, ptr %0, i64 8
  %9 = load ptr, ptr %8, align 8, !tbaa !130
  store ptr null, ptr %4, align 8, !tbaa !164
  %10 = getelementptr inbounds nuw i8, ptr %4, i64 8
  store ptr %9, ptr %10, align 8, !tbaa !6
  %11 = getelementptr inbounds nuw i8, ptr %0, i64 88
  %12 = invoke noundef ptr @_ZNK7bv_util10mk_numeralEmj(ptr noundef nonnull align 8 dereferenceable(24) %11, i64 noundef 0, i32 noundef %7)
          to label %.noexc unwind label %49

.noexc:                                           ; preds = %3
  %.not.i.i = icmp eq ptr %12, null
  br i1 %.not.i.i, label %16, label %_ZN11ast_manager7inc_refEP3ast.exit.i.i

_ZN11ast_manager7inc_refEP3ast.exit.i.i:          ; preds = %.noexc
  %13 = getelementptr inbounds nuw i8, ptr %12, i64 8
  %14 = load i32, ptr %13, align 4, !tbaa !125
  %15 = add i32 %14, 1
  store i32 %15, ptr %13, align 4, !tbaa !125
  br label %16

16:                                               ; preds = %.noexc, %_ZN11ast_manager7inc_refEP3ast.exit.i.i
  store ptr %12, ptr %4, align 8, !tbaa !164
  %17 = invoke noundef ptr @_ZNK7bv_util10mk_numeralEmj(ptr noundef nonnull align 8 dereferenceable(24) %11, i64 noundef 1, i32 noundef 1)
          to label %18 unwind label %49

18:                                               ; preds = %16
  %19 = add i32 %6, -1
  %20 = invoke noundef ptr @_ZNK7bv_util10mk_numeralEmj(ptr noundef nonnull align 8 dereferenceable(24) %11, i64 noundef 0, i32 noundef %19)
          to label %21 unwind label %49

21:                                               ; preds = %18
  %22 = load ptr, ptr %5, align 8, !tbaa !176
  %23 = getelementptr inbounds nuw i8, ptr %0, i64 304
  %24 = load i32, ptr %23, align 8, !tbaa !158
  %25 = invoke noundef ptr @_ZN11ast_manager6mk_appEiiP4exprS1_S1_(ptr noundef nonnull align 8 dereferenceable(976) %22, i32 noundef %24, i32 noundef 37, ptr noundef %17, ptr noundef %12, ptr noundef %20)
          to label %_ZN8fpa_util5mk_fpEP4exprS1_S1_.exit unwind label %49

_ZN8fpa_util5mk_fpEP4exprS1_S1_.exit:             ; preds = %21
  %.not.i = icmp eq ptr %25, null
  br i1 %.not.i, label %29, label %_ZN11ast_manager7inc_refEP3ast.exit.i

_ZN11ast_manager7inc_refEP3ast.exit.i:            ; preds = %_ZN8fpa_util5mk_fpEP4exprS1_S1_.exit
  %26 = getelementptr inbounds nuw i8, ptr %25, i64 8
  %27 = load i32, ptr %26, align 4, !tbaa !125
  %28 = add i32 %27, 1
  store i32 %28, ptr %26, align 4, !tbaa !125
  br label %29

29:                                               ; preds = %_ZN11ast_manager7inc_refEP3ast.exit.i, %_ZN8fpa_util5mk_fpEP4exprS1_S1_.exit
  %30 = load ptr, ptr %2, align 8, !tbaa !164
  %.not.i4.i = icmp eq ptr %30, null
  br i1 %.not.i4.i, label %39, label %31

31:                                               ; preds = %29
  %32 = getelementptr inbounds nuw i8, ptr %2, i64 8
  %33 = load ptr, ptr %32, align 8, !tbaa !166
  %34 = getelementptr inbounds nuw i8, ptr %30, i64 8
  %35 = load i32, ptr %34, align 4, !tbaa !125
  %36 = add i32 %35, -1
  store i32 %36, ptr %34, align 4, !tbaa !125
  %37 = icmp eq i32 %36, 0
  br i1 %37, label %38, label %39

38:                                               ; preds = %31
  invoke void @_ZN11ast_manager11delete_nodeEP3ast(ptr noundef nonnull align 8 dereferenceable(976) %33, ptr noundef nonnull %30)
          to label %39 unwind label %49

39:                                               ; preds = %31, %29, %38
  store ptr %25, ptr %2, align 8, !tbaa !164
  br i1 %.not.i.i, label %_ZN7obj_refI4expr11ast_managerED2Ev.exit, label %40

40:                                               ; preds = %39
  %41 = getelementptr inbounds nuw i8, ptr %12, i64 8
  %42 = load i32, ptr %41, align 4, !tbaa !125
  %43 = add i32 %42, -1
  store i32 %43, ptr %41, align 4, !tbaa !125
  %44 = icmp eq i32 %43, 0
  br i1 %44, label %45, label %_ZN7obj_refI4expr11ast_managerED2Ev.exit

45:                                               ; preds = %40
  invoke void @_ZN11ast_manager11delete_nodeEP3ast(ptr noundef nonnull align 8 dereferenceable(976) %9, ptr noundef nonnull %12)
          to label %_ZN7obj_refI4expr11ast_managerED2Ev.exit unwind label %46

46:                                               ; preds = %45
  %47 = landingpad { ptr, i32 }
          catch ptr null
  %48 = extractvalue { ptr, i32 } %47, 0
  tail call void @__clang_call_terminate(ptr %48) #24
  unreachable

_ZN7obj_refI4expr11ast_managerED2Ev.exit:         ; preds = %39, %40, %45
  call void @llvm.lifetime.end.p0(i64 16, ptr nonnull %4) #23
  ret void

49:                                               ; preds = %38, %21, %3, %18, %16
  %50 = landingpad { ptr, i32 }
          cleanup
  call void @_ZN7obj_refI4expr11ast_managerED2Ev(ptr noundef nonnull align 8 dereferenceable(16) %4) #23
  call void @llvm.lifetime.end.p0(i64 16, ptr nonnull %4) #23
  resume { ptr, i32 } %50
}